target datalayout = "e-m:e-p270:32:32-p271:32:32-p272:64:64-i64:64-i128:128-f80:128-n8:16:32:64-S128"
target triple = "x86_64-pc-linux-gnu"

%struct._object = type { %union.anon, ptr }
%union.anon = type { i64 }
%struct._ffi_type = type { i64, i16, i16, ptr }
%struct.ctypes_state = type { ptr, ptr, ptr, ptr, ptr, ptr, ptr, ptr, ptr, ptr, ptr, ptr, ptr, ptr, ptr, ptr, ptr, ptr, ptr, ptr, ptr, ptr, ptr, ptr, ptr }
%struct.StgInfo = type { i32, i64, i64, i64, %struct._ffi_type, ptr, ptr, ptr, ptr, ptr, ptr, ptr, ptr, ptr, i32, ptr, i32, ptr }
%struct.tagCDataObject = type { %struct._object, ptr, i32, ptr, i64, i64, i64, ptr, %union.value }
%union.value = type { x86_fp80 }
%struct.PyModuleObject = type { %struct._object, ptr, ptr, ptr, ptr, ptr }

@PyExc_ValueError = external global ptr, align 8
@.str.172 = private unnamed_addr constant [20 x i8] c"NULL pointer access\00", align 1

; Function Attrs: inlinehint nounwind uwtable
define internal ptr @_PyModule_GetState(ptr noundef %0) #2 {
  %2 = alloca ptr, align 8
  store ptr %0, ptr %2, align 8, !tbaa !7
  %3 = load ptr, ptr %2, align 8, !tbaa !7
  %4 = getelementptr inbounds nuw %struct.PyModuleObject, ptr %3, i32 0, i32 3
  %5 = load ptr, ptr %4, align 8, !tbaa !112
  ret ptr %5
}

; Function Attrs: inlinehint nounwind uwtable
define internal i32 @_stginfo_from_type(ptr noundef %0, ptr noundef %1, ptr noundef %2) #2 {
  %4 = alloca i32, align 4
  %5 = alloca ptr, align 8
  %6 = alloca ptr, align 8
  %7 = alloca ptr, align 8
  %8 = alloca ptr, align 8
  %9 = alloca i32, align 4
  store ptr %0, ptr %5, align 8, !tbaa !3
  store ptr %1, ptr %6, align 8, !tbaa !50
  store ptr %2, ptr %7, align 8, !tbaa !3
  %10 = load ptr, ptr %7, align 8, !tbaa !3
  store ptr null, ptr %10, align 8, !tbaa !3
  %11 = load ptr, ptr %6, align 8, !tbaa !50
  %12 = load ptr, ptr %5, align 8, !tbaa !3
  %13 = getelementptr inbounds nuw %struct.ctypes_state, ptr %12, i32 0, i32 5
  %14 = load ptr, ptr %13, align 8, !tbaa !80
  %15 = call i32 @PyObject_IsInstance(ptr noundef %11, ptr noundef %14)
  %16 = icmp ne i32 %15, 0
  br i1 %16, label %18, label %17

17:                                               ; preds = %3
  store i32 0, ptr %4, align 4
  br label %33

18:                                               ; preds = %3
  call void @llvm.lifetime.start.p0(i64 8, ptr %8) #9
  %19 = load ptr, ptr %6, align 8, !tbaa !50
  %20 = load ptr, ptr %5, align 8, !tbaa !3
  %21 = getelementptr inbounds nuw %struct.ctypes_state, ptr %20, i32 0, i32 5
  %22 = load ptr, ptr %21, align 8, !tbaa !80
  %23 = call ptr @PyObject_GetTypeData(ptr noundef %19, ptr noundef %22)
  store ptr %23, ptr %8, align 8, !tbaa !3
  %24 = load ptr, ptr %8, align 8, !tbaa !3
  %25 = getelementptr inbounds nuw %struct.StgInfo, ptr %24, i32 0, i32 0
  %26 = load i32, ptr %25, align 8, !tbaa !115
  %27 = icmp ne i32 %26, 0
  br i1 %27, label %29, label %28

28:                                               ; preds = %18
  store i32 0, ptr %4, align 4
  store i32 1, ptr %9, align 4
  br label %32

29:                                               ; preds = %18
  %30 = load ptr, ptr %8, align 8, !tbaa !3
  %31 = load ptr, ptr %7, align 8, !tbaa !3
  store ptr %30, ptr %31, align 8, !tbaa !3
  store i32 1, ptr %4, align 4
  store i32 1, ptr %9, align 4
  br label %32

32:                                               ; preds = %29, %28
  call void @llvm.lifetime.end.p0(i64 8, ptr %8) #9
  br label %33

33:                                               ; preds = %32, %17
  %34 = load i32, ptr %4, align 4
  ret i32 %34
}

; Function Attrs: inlinehint nounwind uwtable
define internal ptr @get_module_state(ptr noundef %0) #2 {
  %2 = alloca ptr, align 8
  %3 = alloca ptr, align 8
  store ptr %0, ptr %2, align 8, !tbaa !7
  call void @llvm.lifetime.start.p0(i64 8, ptr %3) #9
  %4 = load ptr, ptr %2, align 8, !tbaa !7
  %5 = call ptr @_PyModule_GetState(ptr noundef %4)
  store ptr %5, ptr %3, align 8, !tbaa !3
  %6 = load ptr, ptr %3, align 8, !tbaa !3
  call void @llvm.lifetime.end.p0(i64 8, ptr %3) #9
  ret ptr %6
}

; Function Attrs: inlinehint nounwind uwtable
define internal void @UNLOCK_PTR(ptr noundef %0) #2 {
  %2 = alloca ptr, align 8
  store ptr %0, ptr %2, align 8, !tbaa !39
  ret void
}

; Function Attrs: inlinehint nounwind uwtable
define internal void @LOCK_PTR(ptr noundef %0) #2 {
  %2 = alloca ptr, align 8
  store ptr %0, ptr %2, align 8, !tbaa !39
  ret void
}

; Function Attrs: inlinehint nounwind uwtable
define internal i32 @PyStgInfo_FromType(ptr noundef %0, ptr noundef %1, ptr noundef %2) #2 {
  %4 = alloca ptr, align 8
  %5 = alloca ptr, align 8
  %6 = alloca ptr, align 8
  store ptr %0, ptr %4, align 8, !tbaa !3
  store ptr %1, ptr %5, align 8, !tbaa !7
  store ptr %2, ptr %6, align 8, !tbaa !3
  %7 = load ptr, ptr %4, align 8, !tbaa !3
  %8 = load ptr, ptr %5, align 8, !tbaa !7
  %9 = load ptr, ptr %6, align 8, !tbaa !3
  %10 = call i32 @_stginfo_from_type(ptr noundef %7, ptr noundef %8, ptr noundef %9)
  ret i32 %10
}

; Function Attrs: inlinehint nounwind uwtable
define internal i32 @PyStgInfo_FromObject(ptr noundef %0, ptr noundef %1, ptr noundef %2) #2 {
  %4 = alloca ptr, align 8
  %5 = alloca ptr, align 8
  %6 = alloca ptr, align 8
  store ptr %0, ptr %4, align 8, !tbaa !3
  store ptr %1, ptr %5, align 8, !tbaa !7
  store ptr %2, ptr %6, align 8, !tbaa !3
  %7 = load ptr, ptr %4, align 8, !tbaa !3
  %8 = load ptr, ptr %5, align 8, !tbaa !7
  %9 = call ptr @_Py_TYPE(ptr noundef %8)
  %10 = load ptr, ptr %6, align 8, !tbaa !3
  %11 = call i32 @_stginfo_from_type(ptr noundef %7, ptr noundef %9, ptr noundef %10)
  ret i32 %11
}

; Function Attrs: inlinehint nounwind uwtable
define internal ptr @get_module_state_by_def(ptr noundef %0) #2 {
  %2 = alloca ptr, align 8
  %3 = alloca ptr, align 8
  store ptr %0, ptr %2, align 8, !tbaa !50
  call void @llvm.lifetime.start.p0(i64 8, ptr %3) #9
  %4 = load ptr, ptr %2, align 8, !tbaa !50
  %5 = call ptr @PyType_GetModuleByDef(ptr noundef %4, ptr noundef @_ctypesmodule)
  store ptr %5, ptr %3, align 8, !tbaa !7
  %6 = load ptr, ptr %3, align 8, !tbaa !7
  %7 = call ptr @get_module_state(ptr noundef %6)
  call void @llvm.lifetime.end.p0(i64 8, ptr %3) #9
  ret ptr %7
}

; Function Attrs: inlinehint nounwind uwtable
define internal ptr @_Py_TYPE(ptr noundef %0) #2 {
  %2 = alloca ptr, align 8
  store ptr %0, ptr %2, align 8, !tbaa !7
  %3 = load ptr, ptr %2, align 8, !tbaa !7
  %4 = getelementptr inbounds nuw %struct._object, ptr %3, i32 0, i32 1
  %5 = load ptr, ptr %4, align 8, !tbaa !84
  ret ptr %5
}

; Function Attrs: inlinehint nounwind uwtable
define internal ptr @locked_deref(ptr noundef %0) #2 {
  %2 = alloca ptr, align 8
  %3 = alloca ptr, align 8
  store ptr %0, ptr %2, align 8, !tbaa !39
  call void @llvm.lifetime.start.p0(i64 8, ptr %3) #9
  %4 = load ptr, ptr %2, align 8, !tbaa !39
  call void @LOCK_PTR(ptr noundef %4)
  %5 = load ptr, ptr %2, align 8, !tbaa !39
  %6 = getelementptr inbounds nuw %struct.tagCDataObject, ptr %5, i32 0, i32 1
  %7 = load ptr, ptr %6, align 16, !tbaa !46
  %8 = load ptr, ptr %7, align 8, !tbaa !3
  store ptr %8, ptr %3, align 8, !tbaa !3
  %9 = load ptr, ptr %2, align 8, !tbaa !39
  call void @UNLOCK_PTR(ptr noundef %9)
  %10 = load ptr, ptr %3, align 8, !tbaa !3
  call void @llvm.lifetime.end.p0(i64 8, ptr %3) #9
  ret ptr %10
}

; Function Attrs: nounwind uwtable
define internal ptr @Pointer_item(ptr noundef %0, i64 noundef %1) #0 {
  %3 = alloca ptr, align 8
  %4 = alloca ptr, align 8
  %5 = alloca i64, align 8
  %6 = alloca ptr, align 8
  %7 = alloca i64, align 8
  %8 = alloca i64, align 8
  %9 = alloca ptr, align 8
  %10 = alloca ptr, align 8
  %11 = alloca i32, align 4
  %12 = alloca ptr, align 8
  %13 = alloca ptr, align 8
  %14 = alloca ptr, align 8
  store ptr %0, ptr %4, align 8, !tbaa !7
  store i64 %1, ptr %5, align 8, !tbaa !23
  call void @llvm.lifetime.start.p0(i64 8, ptr %6) #9
  %15 = load ptr, ptr %4, align 8, !tbaa !7
  store ptr %15, ptr %6, align 8, !tbaa !39
  call void @llvm.lifetime.start.p0(i64 8, ptr %7) #9
  call void @llvm.lifetime.start.p0(i64 8, ptr %8) #9
  call void @llvm.lifetime.start.p0(i64 8, ptr %9) #9
  call void @llvm.lifetime.start.p0(i64 8, ptr %10) #9
  %16 = load ptr, ptr %6, align 8, !tbaa !39
  %17 = call ptr @locked_deref(ptr noundef %16)
  store ptr %17, ptr %10, align 8, !tbaa !3
  %18 = load ptr, ptr %10, align 8, !tbaa !3
  %19 = icmp eq ptr %18, null
  br i1 %19, label %20, label %22

20:                                               ; preds = %2
  %21 = load ptr, ptr @PyExc_ValueError, align 8, !tbaa !7
  call void @PyErr_SetString(ptr noundef %21, ptr noundef @.str.172)
  store ptr null, ptr %3, align 8
  store i32 1, ptr %11, align 4
  br label %64

22:                                               ; preds = %2
  call void @llvm.lifetime.start.p0(i64 8, ptr %12) #9
  %23 = load ptr, ptr %4, align 8, !tbaa !7
  %24 = call ptr @_Py_TYPE(ptr noundef %23)
  %25 = call ptr @_Py_TYPE(ptr noundef %24)
  %26 = call ptr @get_module_state_by_def(ptr noundef %25)
  store ptr %26, ptr %12, align 8, !tbaa !3
  call void @llvm.lifetime.start.p0(i64 8, ptr %13) #9
  %27 = load ptr, ptr %12, align 8, !tbaa !3
  %28 = load ptr, ptr %4, align 8, !tbaa !7
  %29 = call i32 @PyStgInfo_FromObject(ptr noundef %27, ptr noundef %28, ptr noundef %13)
  %30 = icmp slt i32 %29, 0
  br i1 %30, label %31, label %32

31:                                               ; preds = %22
  store ptr null, ptr %3, align 8
  store i32 1, ptr %11, align 4
  br label %63

32:                                               ; preds = %22
  %33 = load ptr, ptr %13, align 8, !tbaa !3
  %34 = getelementptr inbounds nuw %struct.StgInfo, ptr %33, i32 0, i32 5
  %35 = load ptr, ptr %34, align 8, !tbaa !60
  store ptr %35, ptr %9, align 8, !tbaa !7
  call void @llvm.lifetime.start.p0(i64 8, ptr %14) #9
  %36 = load ptr, ptr %12, align 8, !tbaa !3
  %37 = load ptr, ptr %9, align 8, !tbaa !7
  %38 = call i32 @PyStgInfo_FromType(ptr noundef %36, ptr noundef %37, ptr noundef %14)
  %39 = icmp slt i32 %38, 0
  br i1 %39, label %40, label %41

40:                                               ; preds = %32
  store ptr null, ptr %3, align 8
  store i32 1, ptr %11, align 4
  br label %62

41:                                               ; preds = %32
  %42 = load ptr, ptr %14, align 8, !tbaa !3
  %43 = getelementptr inbounds nuw %struct.StgInfo, ptr %42, i32 0, i32 1
  %44 = load i64, ptr %43, align 8, !tbaa !44
  store i64 %44, ptr %7, align 8, !tbaa !23
  %45 = load i64, ptr %5, align 8, !tbaa !23
  %46 = load ptr, ptr %14, align 8, !tbaa !3
  %47 = getelementptr inbounds nuw %struct.StgInfo, ptr %46, i32 0, i32 1
  %48 = load i64, ptr %47, align 8, !tbaa !44
  %49 = mul i64 %45, %48
  store i64 %49, ptr %8, align 8, !tbaa !23
  %50 = load ptr, ptr %12, align 8, !tbaa !3
  %51 = load ptr, ptr %9, align 8, !tbaa !7
  %52 = load ptr, ptr %13, align 8, !tbaa !3
  %53 = getelementptr inbounds nuw %struct.StgInfo, ptr %52, i32 0, i32 7
  %54 = load ptr, ptr %53, align 8, !tbaa !54
  %55 = load ptr, ptr %4, align 8, !tbaa !7
  %56 = load i64, ptr %5, align 8, !tbaa !23
  %57 = load i64, ptr %7, align 8, !tbaa !23
  %58 = load ptr, ptr %10, align 8, !tbaa !3
  %59 = load i64, ptr %8, align 8, !tbaa !23
  %60 = getelementptr i8, ptr %58, i64 %59
  %61 = call ptr @PyCData_get(ptr noundef %50, ptr noundef %51, ptr noundef %54, ptr noundef %55, i64 noundef %56, i64 noundef %57, ptr noundef %60)
  store ptr %61, ptr %3, align 8
  store i32 1, ptr %11, align 4
  br label %62

62:                                               ; preds = %41, %40
  call void @llvm.lifetime.end.p0(i64 8, ptr %14) #9
  br label %63

63:                                               ; preds = %62, %31
  call void @llvm.lifetime.end.p0(i64 8, ptr %13) #9
  call void @llvm.lifetime.end.p0(i64 8, ptr %12) #9
  br label %64

64:                                               ; preds = %63, %20
  call void @llvm.lifetime.end.p0(i64 8, ptr %10) #9
  call void @llvm.lifetime.end.p0(i64 8, ptr %9) #9
  call void @llvm.lifetime.end.p0(i64 8, ptr %8) #9
  call void @llvm.lifetime.end.p0(i64 8, ptr %7) #9
  call void @llvm.lifetime.end.p0(i64 8, ptr %6) #9
  %65 = load ptr, ptr %3, align 8
  ret ptr %65
}