; Function Attrs: nounwind uwtable
define internal ptr @Pointer_item(ptr noundef %0, i64 noundef %1) #0 {
  %3 = getelementptr i8, ptr %0, i64 16
  %.val19 = load ptr, ptr %3, align 16, !tbaa !42
  %.val19.val = load ptr, ptr %.val19, align 8, !tbaa !46
  %4 = icmp eq ptr %.val19.val, null
  br i1 %4, label %5, label %7

5:                                                ; preds = %2
  %6 = load ptr, ptr @PyExc_ValueError, align 8, !tbaa !27
  tail call void @PyErr_SetString(ptr noundef %6, ptr noundef nonnull @.str.172) #17
  br label %33

7:                                                ; preds = %2
  %8 = getelementptr i8, ptr %0, i64 8
  %.val17 = load ptr, ptr %8, align 8, !tbaa !10
  %9 = getelementptr i8, ptr %.val17, i64 8
  %.val = load ptr, ptr %9, align 8, !tbaa !10
  %10 = tail call ptr @PyType_GetModuleByDef(ptr noundef %.val, ptr noundef nonnull @_ctypesmodule) #17
  %11 = getelementptr i8, ptr %10, i64 32
  %.val.i = load ptr, ptr %11, align 8, !tbaa !63
  %.val18 = load ptr, ptr %8, align 8, !tbaa !10
  %12 = getelementptr inbounds nuw i8, ptr %.val.i, i64 40
  %13 = load ptr, ptr %12, align 8, !tbaa !28
  %14 = tail call i32 @PyObject_IsInstance(ptr noundef %.val18, ptr noundef %13) #17
  %.not.i.i = icmp eq i32 %14, 0
  br i1 %.not.i.i, label %PyStgInfo_FromObject.exit, label %15

15:                                               ; preds = %7
  %16 = load ptr, ptr %12, align 8, !tbaa !28
  %17 = tail call ptr @PyObject_GetTypeData(ptr noundef %.val18, ptr noundef %16) #17
  %18 = load i32, ptr %17, align 8, !tbaa !29
  %.not8.i.i = icmp eq i32 %18, 0
  %spec.select = select i1 %.not8.i.i, ptr null, ptr %17
  br label %PyStgInfo_FromObject.exit

PyStgInfo_FromObject.exit:                        ; preds = %15, %7
  %.026 = phi ptr [ null, %7 ], [ %spec.select, %15 ]
  %19 = getelementptr inbounds nuw i8, ptr %.026, i64 56
  %20 = load ptr, ptr %19, align 8, !tbaa !59
  %21 = load ptr, ptr %12, align 8, !tbaa !28
  %22 = tail call i32 @PyObject_IsInstance(ptr noundef %20, ptr noundef %21) #17
  %.not.i.i20 = icmp ne i32 %22, 0
  tail call void @llvm.assume(i1 %.not.i.i20)
  %23 = load ptr, ptr %12, align 8, !tbaa !28
  %24 = tail call ptr @PyObject_GetTypeData(ptr noundef %20, ptr noundef %23) #17
  %25 = load i32, ptr %24, align 8, !tbaa !29
  %.not8.i.i21 = icmp ne i32 %25, 0
  tail call void @llvm.assume(i1 %.not8.i.i21)
  %26 = getelementptr inbounds nuw i8, ptr %24, i64 8
  %27 = load i64, ptr %26, align 8, !tbaa !40
  %28 = mul i64 %27, %1
  %29 = getelementptr inbounds nuw i8, ptr %.026, i64 72
  %30 = load ptr, ptr %29, align 8, !tbaa !50
  %31 = getelementptr i8, ptr %.val19.val, i64 %28
  %32 = tail call ptr @PyCData_get(ptr noundef nonnull %.val.i, ptr noundef %20, ptr noundef %30, ptr noundef nonnull %0, i64 noundef %1, i64 noundef %27, ptr noundef %31)
  br label %33

33:                                               ; preds = %PyStgInfo_FromObject.exit, %5
  %.0 = phi ptr [ null, %5 ], [ %32, %PyStgInfo_FromObject.exit ]
  ret ptr %.0
}